; ModuleID = '7/1020.c'
source_filename = "7/1020.c"
target datalayout = "e-m:e-p270:32:32-p271:32:32-p272:64:64-i64:64-f80:128-n8:16:32:64-S128"
target triple = "x86_64-pc-linux-gnu"

@.str = private unnamed_addr constant [9 x i8] c"%s %s %s\00", align 1

; Function Attrs: noinline nounwind uwtable
define dso_local i32 @main() #0 {
  %1 = alloca i32, align 4
  %2 = alloca [256 x i8], align 16
  %3 = alloca [256 x i8], align 16
  %4 = alloca [256 x i8], align 16
  %5 = alloca i32, align 4
  %6 = alloca i32, align 4
  %7 = alloca i32, align 4
  %8 = alloca i32, align 4
  %9 = alloca i32, align 4
  %10 = alloca i32, align 4
  store i32 0, i32* %1, align 4
  %11 = getelementptr inbounds [256 x i8], [256 x i8]* %2, i64 0, i64 0
  %12 = getelementptr inbounds [256 x i8], [256 x i8]* %3, i64 0, i64 0
  %13 = getelementptr inbounds [256 x i8], [256 x i8]* %4, i64 0, i64 0
  %14 = call i32 (i8*, ...) @__isoc99_scanf(i8* getelementptr inbounds ([9 x i8], [9 x i8]* @.str, i64 0, i64 0), i8* %11, i8* %12, i8* %13)
  store i32 0, i32* %8, align 4
  store i32 0, i32* %9, align 4
  store i32 0, i32* %5, align 4
  br label %15

15:                                               ; preds = %25, %0
  %16 = load i32, i32* %5, align 4
  %17 = sext i32 %16 to i64
  %18 = getelementptr inbounds [256 x i8], [256 x i8]* %3, i64 0, i64 %17
  %19 = load i8, i8* %18, align 1
  %20 = sext i8 %19 to i32
  %21 = icmp ne i32 %20, 0
  br i1 %21, label %22, label %28

22:                                               ; preds = %15
  %23 = load i32, i32* %8, align 4
  %24 = add nsw i32 %23, 1
  store i32 %24, i32* %8, align 4
  br label %25

25:                                               ; preds = %22
  %26 = load i32, i32* %5, align 4
  %27 = add nsw i32 %26, 1
  store i32 %27, i32* %5, align 4
  br label %15

28:                                               ; preds = %15
  store i32 0, i32* %5, align 4
  br label %29

29:                                               ; preds = %39, %28
  %30 = load i32, i32* %5, align 4
  %31 = sext i32 %30 to i64
  %32 = getelementptr inbounds [256 x i8], [256 x i8]* %4, i64 0, i64 %31
  %33 = load i8, i8* %32, align 1
  %34 = sext i8 %33 to i32
  %35 = icmp ne i32 %34, 0
  br i1 %35, label %36, label %42

36:                                               ; preds = %29
  %37 = load i32, i32* %9, align 4
  %38 = add nsw i32 %37, 1
  store i32 %38, i32* %9, align 4
  br label %39

39:                                               ; preds = %36
  %40 = load i32, i32* %5, align 4
  %41 = add nsw i32 %40, 1
  store i32 %41, i32* %5, align 4
  br label %29

42:                                               ; preds = %29
  store i32 0, i32* %5, align 4
  br label %43

43:                                               ; preds = %114, %42
  %44 = load i32, i32* %5, align 4
  %45 = add nsw i32 %44, 1
  %46 = sext i32 %45 to i64
  %47 = getelementptr inbounds [256 x i8], [256 x i8]* %2, i64 0, i64 %46
  %48 = load i8, i8* %47, align 1
  %49 = sext i8 %48 to i32
  %50 = icmp ne i32 %49, 0
  br i1 %50, label %51, label %117

51:                                               ; preds = %43
  %52 = load i32, i32* %5, align 4
  %53 = sext i32 %52 to i64
  %54 = getelementptr inbounds [256 x i8], [256 x i8]* %2, i64 0, i64 %53
  %55 = load i8, i8* %54, align 1
  %56 = sext i8 %55 to i32
  %57 = getelementptr inbounds [256 x i8], [256 x i8]* %3, i64 0, i64 0
  %58 = load i8, i8* %57, align 16
  %59 = sext i8 %58 to i32
  %60 = icmp eq i32 %56, %59
  br i1 %60, label %61, label %113

61:                                               ; preds = %51
  store i32 0, i32* %10, align 4
  %62 = load i32, i32* %5, align 4
  store i32 %62, i32* %7, align 4
  store i32 0, i32* %6, align 4
  br label %63

63:                                               ; preds = %86, %61
  %64 = load i32, i32* %6, align 4
  %65 = load i32, i32* %8, align 4
  %66 = icmp slt i32 %64, %65
  br i1 %66, label %67, label %89

67:                                               ; preds = %63
  %68 = load i32, i32* %7, align 4
  %69 = load i32, i32* %6, align 4
  %70 = add nsw i32 %68, %69
  %71 = sext i32 %70 to i64
  %72 = getelementptr inbounds [256 x i8], [256 x i8]* %2, i64 0, i64 %71
  %73 = load i8, i8* %72, align 1
  %74 = sext i8 %73 to i32
  %75 = load i32, i32* %6, align 4
  %76 = sext i32 %75 to i64
  %77 = getelementptr inbounds [256 x i8], [256 x i8]* %3, i64 0, i64 %76
  %78 = load i8, i8* %77, align 1
  %79 = sext i8 %78 to i32
  %80 = icmp eq i32 %74, %79
  br i1 %80, label %81, label %84

81:                                               ; preds = %67
  %82 = load i32, i32* %10, align 4
  %83 = add nsw i32 %82, 1
  store i32 %83, i32* %10, align 4
  br label %85

84:                                               ; preds = %67
  br label %89

85:                                               ; preds = %81
  br label %86

86:                                               ; preds = %85
  %87 = load i32, i32* %6, align 4
  %88 = add nsw i32 %87, 1
  store i32 %88, i32* %6, align 4
  br label %63

89:                                               ; preds = %84, %63
  %90 = load i32, i32* %10, align 4
  %91 = load i32, i32* %8, align 4
  %92 = icmp eq i32 %90, %91
  br i1 %92, label %93, label %112

93:                                               ; preds = %89
  store i32 0, i32* %6, align 4
  br label %94

94:                                               ; preds = %108, %93
  %95 = load i32, i32* %6, align 4
  %96 = load i32, i32* %9, align 4
  %97 = icmp slt i32 %95, %96
  br i1 %97, label %98, label %111

98:                                               ; preds = %94
  %99 = load i32, i32* %6, align 4
  %100 = sext i32 %99 to i64
  %101 = getelementptr inbounds [256 x i8], [256 x i8]* %4, i64 0, i64 %100
  %102 = load i8, i8* %101, align 1
  %103 = load i32, i32* %7, align 4
  %104 = load i32, i32* %6, align 4
  %105 = add nsw i32 %103, %104
  %106 = sext i32 %105 to i64
  %107 = getelementptr inbounds [256 x i8], [256 x i8]* %2, i64 0, i64 %106
  store i8 %102, i8* %107, align 1
  br label %108

108:                                              ; preds = %98
  %109 = load i32, i32* %6, align 4
  %110 = add nsw i32 %109, 1
  store i32 %110, i32* %6, align 4
  br label %94

111:                                              ; preds = %94
  br label %117

112:                                              ; preds = %89
  br label %113

113:                                              ; preds = %112, %51
  br label %114

114:                                              ; preds = %113
  %115 = load i32, i32* %5, align 4
  %116 = add nsw i32 %115, 1
  store i32 %116, i32* %5, align 4
  br label %43

117:                                              ; preds = %111, %43
  %118 = getelementptr inbounds [256 x i8], [256 x i8]* %2, i64 0, i64 0
  %119 = call i32 @puts(i8* %118)
  %120 = call i32 @getchar()
  %121 = call i32 @getchar()
  %122 = call i32 @getchar()
  %123 = call i32 @getchar()
  %124 = load i32, i32* %1, align 4
  ret i32 %124
}

declare dso_local i32 @__isoc99_scanf(i8*, ...) #1

declare dso_local i32 @puts(i8*) #1

declare dso_local i32 @getchar() #1


!llvm.module.flags = !{!0}
!llvm.ident = !{!1}

!0 = !{i32 1, !"wchar_size", i32 4}
!1 = !{!"clang version 10.0.0-4ubuntu1 "}
